ARM GAS  C:\Users\nikod\AppData\Local\Temp\ccQQ6jLz.s 			page 1


   1              		.syntax unified
   2              		.cpu cortex-m3
   3              		.fpu softvfp
   4              		.eabi_attribute 20, 1
   5              		.eabi_attribute 21, 1
   6              		.eabi_attribute 23, 3
   7              		.eabi_attribute 24, 1
   8              		.eabi_attribute 25, 1
   9              		.eabi_attribute 26, 1
  10              		.eabi_attribute 30, 1
  11              		.eabi_attribute 34, 1
  12              		.eabi_attribute 18, 4
  13              		.thumb
  14              		.syntax unified
  15              		.file	"main.c"
  16              		.text
  17              	.Ltext0:
  18              		.cfi_sections	.debug_frame
  19              		.section	.text.TurnLefth,"ax",%progbits
  20              		.align	2
  21              		.global	TurnLefth
  22              		.thumb
  23              		.thumb_func
  24              		.type	TurnLefth, %function
  25              	TurnLefth:
  26              	.LFB64:
  27              		.file 1 "main.c"
   1:main.c        **** #include "project.h"
   2:main.c        **** #include <string.h>
   3:main.c        **** #include <stdio.h>
   4:main.c        **** #include <stdbool.h>
   5:main.c        **** #include "GP2Y0E03.h"
   6:main.c        **** 
   7:main.c        **** const int MAXDIRI=4450; 
   8:main.c        **** const int MINDIRI=3710;
   9:main.c        **** 
  10:main.c        **** const int MAXDIRD=2610;
  11:main.c        **** const int MINDIRD=1870;
  12:main.c        **** 
  13:main.c        **** const int DDIRI=37;
  14:main.c        **** const int DDIRD=36;
  15:main.c        **** 
  16:main.c        **** 
  17:main.c        **** char buffer2[12]={};
  18:main.c        **** int16 temp,count;
  19:main.c        **** unsigned char valor;
  20:main.c        **** volatile unsigned int direcciond=2240;//
  21:main.c        **** volatile unsigned int direccioni=4080;//CENTRO
  22:main.c        **** volatile bool banderag=false,bandera1=false, banderaDoor = false;
  23:main.c        **** volatile char dato;
  24:main.c        **** 
  25:main.c        **** 
  26:main.c        **** void TurnLefth(){//Giro Izquierda
  28              		.loc 1 26 0
  29              		.cfi_startproc
  30              		@ args = 0, pretend = 0, frame = 0
  31              		@ frame_needed = 0, uses_anonymous_args = 0
ARM GAS  C:\Users\nikod\AppData\Local\Temp\ccQQ6jLz.s 			page 2


  32 0000 08B5     		push	{r3, lr}
  33              		.cfi_def_cfa_offset 8
  34              		.cfi_offset 3, -8
  35              		.cfi_offset 14, -4
  27:main.c        **** 
  28:main.c        ****     if (direccioni<MAXDIRI)
  36              		.loc 1 28 0
  37 0002 194B     		ldr	r3, .L5
  38 0004 1A68     		ldr	r2, [r3]
  39 0006 41F26113 		movw	r3, #4449
  40 000a 9A42     		cmp	r2, r3
  41 000c 07D8     		bhi	.L2
  29:main.c        ****     {
  30:main.c        ****         direccioni=direccioni+DDIRI;
  42              		.loc 1 30 0
  43 000e 164B     		ldr	r3, .L5
  44 0010 1A68     		ldr	r2, [r3]
  45 0012 2532     		adds	r2, r2, #37
  46 0014 1A60     		str	r2, [r3]
  31:main.c        ****         PWM_Dir_WriteCompare2(direccioni);
  47              		.loc 1 31 0
  48 0016 1868     		ldr	r0, [r3]
  49 0018 80B2     		uxth	r0, r0
  50 001a FFF7FEFF 		bl	PWM_Dir_WriteCompare2
  51              	.LVL0:
  52              	.L2:
  32:main.c        ****     }
  33:main.c        ****     
  34:main.c        ****      if (direcciond<MAXDIRD)
  53              		.loc 1 34 0
  54 001e 124B     		ldr	r3, .L5
  55 0020 5A68     		ldr	r2, [r3, #4]
  56 0022 40F63123 		movw	r3, #2609
  57 0026 9A42     		cmp	r2, r3
  58 0028 07D8     		bhi	.L3
  35:main.c        ****     {
  36:main.c        ****         direcciond=direcciond+DDIRD;
  59              		.loc 1 36 0
  60 002a 0F4B     		ldr	r3, .L5
  61 002c 5A68     		ldr	r2, [r3, #4]
  62 002e 2432     		adds	r2, r2, #36
  63 0030 5A60     		str	r2, [r3, #4]
  37:main.c        ****         PWM_Dir_WriteCompare1(direcciond);
  64              		.loc 1 37 0
  65 0032 5868     		ldr	r0, [r3, #4]
  66 0034 80B2     		uxth	r0, r0
  67 0036 FFF7FEFF 		bl	PWM_Dir_WriteCompare1
  68              	.LVL1:
  69              	.L3:
  38:main.c        ****     }
  39:main.c        ****     PWM_Motores_WriteCompare2(100);
  70              		.loc 1 39 0
  71 003a 6420     		movs	r0, #100
  72 003c FFF7FEFF 		bl	PWM_Motores_WriteCompare2
  73              	.LVL2:
  40:main.c        ****     PWM_Motores_WriteCompare1(100);
  74              		.loc 1 40 0
ARM GAS  C:\Users\nikod\AppData\Local\Temp\ccQQ6jLz.s 			page 3


  75 0040 6420     		movs	r0, #100
  76 0042 FFF7FEFF 		bl	PWM_Motores_WriteCompare1
  77              	.LVL3:
  41:main.c        ****     INMD_Write(1);
  78              		.loc 1 41 0
  79 0046 0120     		movs	r0, #1
  80 0048 FFF7FEFF 		bl	INMD_Write
  81              	.LVL4:
  42:main.c        ****     INMI_Write(2);
  82              		.loc 1 42 0
  83 004c 0220     		movs	r0, #2
  84 004e FFF7FEFF 		bl	INMI_Write
  85              	.LVL5:
  43:main.c        ****     CyDelay(1000);
  86              		.loc 1 43 0
  87 0052 4FF47A70 		mov	r0, #1000
  88 0056 FFF7FEFF 		bl	CyDelay
  89              	.LVL6:
  44:main.c        ****     PWM_Motores_WriteCompare2(0);
  90              		.loc 1 44 0
  91 005a 0020     		movs	r0, #0
  92 005c FFF7FEFF 		bl	PWM_Motores_WriteCompare2
  93              	.LVL7:
  45:main.c        ****     PWM_Motores_WriteCompare1(0);
  94              		.loc 1 45 0
  95 0060 0020     		movs	r0, #0
  96 0062 FFF7FEFF 		bl	PWM_Motores_WriteCompare1
  97              	.LVL8:
  98 0066 08BD     		pop	{r3, pc}
  99              	.L6:
 100              		.align	2
 101              	.L5:
 102 0068 00000000 		.word	.LANCHOR0
 103              		.cfi_endproc
 104              	.LFE64:
 105              		.size	TurnLefth, .-TurnLefth
 106              		.section	.text.TurnRight,"ax",%progbits
 107              		.align	2
 108              		.global	TurnRight
 109              		.thumb
 110              		.thumb_func
 111              		.type	TurnRight, %function
 112              	TurnRight:
 113              	.LFB65:
  46:main.c        ****             
  47:main.c        **** }
  48:main.c        **** 
  49:main.c        **** void TurnRight(){
 114              		.loc 1 49 0
 115              		.cfi_startproc
 116              		@ args = 0, pretend = 0, frame = 0
 117              		@ frame_needed = 0, uses_anonymous_args = 0
 118 0000 08B5     		push	{r3, lr}
 119              		.cfi_def_cfa_offset 8
 120              		.cfi_offset 3, -8
 121              		.cfi_offset 14, -4
  50:main.c        ****   
ARM GAS  C:\Users\nikod\AppData\Local\Temp\ccQQ6jLz.s 			page 4


  51:main.c        ****     if (direccioni>MINDIRI)
 122              		.loc 1 51 0
 123 0002 194B     		ldr	r3, .L11
 124 0004 1A68     		ldr	r2, [r3]
 125 0006 40F67E63 		movw	r3, #3710
 126 000a 9A42     		cmp	r2, r3
 127 000c 07D9     		bls	.L8
  52:main.c        ****         {   
  53:main.c        ****         direccioni=direccioni-DDIRI;
 128              		.loc 1 53 0
 129 000e 164B     		ldr	r3, .L11
 130 0010 1A68     		ldr	r2, [r3]
 131 0012 253A     		subs	r2, r2, #37
 132 0014 1A60     		str	r2, [r3]
  54:main.c        ****         PWM_Dir_WriteCompare2(direccioni); 
 133              		.loc 1 54 0
 134 0016 1868     		ldr	r0, [r3]
 135 0018 80B2     		uxth	r0, r0
 136 001a FFF7FEFF 		bl	PWM_Dir_WriteCompare2
 137              	.LVL9:
 138              	.L8:
  55:main.c        ****     }
  56:main.c        ****     
  57:main.c        ****     if (direcciond>MINDIRD)
 139              		.loc 1 57 0
 140 001e 124B     		ldr	r3, .L11
 141 0020 5A68     		ldr	r2, [r3, #4]
 142 0022 40F24E73 		movw	r3, #1870
 143 0026 9A42     		cmp	r2, r3
 144 0028 07D9     		bls	.L9
  58:main.c        ****     {   
  59:main.c        ****         direcciond=direcciond-DDIRD;
 145              		.loc 1 59 0
 146 002a 0F4B     		ldr	r3, .L11
 147 002c 5A68     		ldr	r2, [r3, #4]
 148 002e 243A     		subs	r2, r2, #36
 149 0030 5A60     		str	r2, [r3, #4]
  60:main.c        ****         PWM_Dir_WriteCompare1(direcciond); 
 150              		.loc 1 60 0
 151 0032 5868     		ldr	r0, [r3, #4]
 152 0034 80B2     		uxth	r0, r0
 153 0036 FFF7FEFF 		bl	PWM_Dir_WriteCompare1
 154              	.LVL10:
 155              	.L9:
  61:main.c        ****     }
  62:main.c        ****     PWM_Motores_WriteCompare2(100);
 156              		.loc 1 62 0
 157 003a 6420     		movs	r0, #100
 158 003c FFF7FEFF 		bl	PWM_Motores_WriteCompare2
 159              	.LVL11:
  63:main.c        ****     PWM_Motores_WriteCompare1(100);
 160              		.loc 1 63 0
 161 0040 6420     		movs	r0, #100
 162 0042 FFF7FEFF 		bl	PWM_Motores_WriteCompare1
 163              	.LVL12:
  64:main.c        ****     INMD_Write(2);
 164              		.loc 1 64 0
ARM GAS  C:\Users\nikod\AppData\Local\Temp\ccQQ6jLz.s 			page 5


 165 0046 0220     		movs	r0, #2
 166 0048 FFF7FEFF 		bl	INMD_Write
 167              	.LVL13:
  65:main.c        ****     INMI_Write(1);
 168              		.loc 1 65 0
 169 004c 0120     		movs	r0, #1
 170 004e FFF7FEFF 		bl	INMI_Write
 171              	.LVL14:
  66:main.c        ****     CyDelay(1000);
 172              		.loc 1 66 0
 173 0052 4FF47A70 		mov	r0, #1000
 174 0056 FFF7FEFF 		bl	CyDelay
 175              	.LVL15:
  67:main.c        ****     PWM_Motores_WriteCompare2(0);
 176              		.loc 1 67 0
 177 005a 0020     		movs	r0, #0
 178 005c FFF7FEFF 		bl	PWM_Motores_WriteCompare2
 179              	.LVL16:
  68:main.c        ****     PWM_Motores_WriteCompare1(0);
 180              		.loc 1 68 0
 181 0060 0020     		movs	r0, #0
 182 0062 FFF7FEFF 		bl	PWM_Motores_WriteCompare1
 183              	.LVL17:
 184 0066 08BD     		pop	{r3, pc}
 185              	.L12:
 186              		.align	2
 187              	.L11:
 188 0068 00000000 		.word	.LANCHOR0
 189              		.cfi_endproc
 190              	.LFE65:
 191              		.size	TurnRight, .-TurnRight
 192              		.section	.text.InterrupRx,"ax",%progbits
 193              		.align	2
 194              		.global	InterrupRx
 195              		.thumb
 196              		.thumb_func
 197              		.type	InterrupRx, %function
 198              	InterrupRx:
 199              	.LFB66:
  69:main.c        ****       
  70:main.c        **** }
  71:main.c        **** 
  72:main.c        **** CY_ISR(InterrupRx){
 200              		.loc 1 72 0
 201              		.cfi_startproc
 202              		@ args = 0, pretend = 0, frame = 0
 203              		@ frame_needed = 0, uses_anonymous_args = 0
 204 0000 08B5     		push	{r3, lr}
 205              		.cfi_def_cfa_offset 8
 206              		.cfi_offset 3, -8
 207              		.cfi_offset 14, -4
  73:main.c        ****     dato=UART_GetChar();//recibe el dato del bluetooth
 208              		.loc 1 73 0
 209 0002 FFF7FEFF 		bl	UART_GetChar
 210              	.LVL18:
 211 0006 4E4B     		ldr	r3, .L29
 212 0008 1870     		strb	r0, [r3]
ARM GAS  C:\Users\nikod\AppData\Local\Temp\ccQQ6jLz.s 			page 6


  74:main.c        ****     switch (dato){
 213              		.loc 1 74 0
 214 000a 1B78     		ldrb	r3, [r3]	@ zero_extendqisi2
 215 000c 303B     		subs	r3, r3, #48
 216 000e 372B     		cmp	r3, #55
 217 0010 00F29480 		bhi	.L13
 218 0014 DFE803F0 		tbb	[pc, r3]
 219              	.L16:
 220 0018 20       		.byte	(.L15-.L16)/2
 221 0019 2D       		.byte	(.L17-.L16)/2
 222 001a 3A       		.byte	(.L18-.L16)/2
 223 001b 3D       		.byte	(.L19-.L16)/2
 224 001c 40       		.byte	(.L20-.L16)/2
 225 001d 55       		.byte	(.L21-.L16)/2
 226 001e 92       		.byte	(.L13-.L16)/2
 227 001f 92       		.byte	(.L13-.L16)/2
 228 0020 92       		.byte	(.L13-.L16)/2
 229 0021 92       		.byte	(.L13-.L16)/2
 230 0022 92       		.byte	(.L13-.L16)/2
 231 0023 92       		.byte	(.L13-.L16)/2
 232 0024 92       		.byte	(.L13-.L16)/2
 233 0025 92       		.byte	(.L13-.L16)/2
 234 0026 92       		.byte	(.L13-.L16)/2
 235 0027 92       		.byte	(.L13-.L16)/2
 236 0028 92       		.byte	(.L13-.L16)/2
 237 0029 92       		.byte	(.L13-.L16)/2
 238 002a 92       		.byte	(.L13-.L16)/2
 239 002b 92       		.byte	(.L13-.L16)/2
 240 002c 92       		.byte	(.L13-.L16)/2
 241 002d 92       		.byte	(.L13-.L16)/2
 242 002e 6A       		.byte	(.L22-.L16)/2
 243 002f 92       		.byte	(.L13-.L16)/2
 244 0030 92       		.byte	(.L13-.L16)/2
 245 0031 92       		.byte	(.L13-.L16)/2
 246 0032 92       		.byte	(.L13-.L16)/2
 247 0033 92       		.byte	(.L13-.L16)/2
 248 0034 92       		.byte	(.L13-.L16)/2
 249 0035 92       		.byte	(.L13-.L16)/2
 250 0036 92       		.byte	(.L13-.L16)/2
 251 0037 92       		.byte	(.L13-.L16)/2
 252 0038 92       		.byte	(.L13-.L16)/2
 253 0039 92       		.byte	(.L13-.L16)/2
 254 003a 92       		.byte	(.L13-.L16)/2
 255 003b 71       		.byte	(.L23-.L16)/2
 256 003c 92       		.byte	(.L13-.L16)/2
 257 003d 92       		.byte	(.L13-.L16)/2
 258 003e 92       		.byte	(.L13-.L16)/2
 259 003f 80       		.byte	(.L24-.L16)/2
 260 0040 92       		.byte	(.L13-.L16)/2
 261 0041 92       		.byte	(.L13-.L16)/2
 262 0042 92       		.byte	(.L13-.L16)/2
 263 0043 92       		.byte	(.L13-.L16)/2
 264 0044 92       		.byte	(.L13-.L16)/2
 265 0045 92       		.byte	(.L13-.L16)/2
 266 0046 92       		.byte	(.L13-.L16)/2
 267 0047 92       		.byte	(.L13-.L16)/2
 268 0048 92       		.byte	(.L13-.L16)/2
ARM GAS  C:\Users\nikod\AppData\Local\Temp\ccQQ6jLz.s 			page 7


 269 0049 92       		.byte	(.L13-.L16)/2
 270 004a 92       		.byte	(.L13-.L16)/2
 271 004b 92       		.byte	(.L13-.L16)/2
 272 004c 92       		.byte	(.L13-.L16)/2
 273 004d 92       		.byte	(.L13-.L16)/2
 274 004e 92       		.byte	(.L13-.L16)/2
 275 004f 1C       		.byte	(.L25-.L16)/2
 276              		.p2align 1
 277              	.L25:
  75:main.c        ****         case 'g':{
  76:main.c        ****             //Pide datos de sensor
  77:main.c        ****             banderag=true;        
 278              		.loc 1 77 0
 279 0050 0122     		movs	r2, #1
 280 0052 3C4B     		ldr	r3, .L29+4
 281 0054 1A70     		strb	r2, [r3]
  78:main.c        ****             break;
 282              		.loc 1 78 0
 283 0056 08BD     		pop	{r3, pc}
 284              	.L15:
  79:main.c        ****         }
  80:main.c        ****         case '0':{
  81:main.c        ****         //Adelante Inicio
  82:main.c        ****             PWM_Motores_WriteCompare1(100);
 285              		.loc 1 82 0
 286 0058 6420     		movs	r0, #100
 287 005a FFF7FEFF 		bl	PWM_Motores_WriteCompare1
 288              	.LVL19:
  83:main.c        ****             PWM_Motores_WriteCompare2(100);
 289              		.loc 1 83 0
 290 005e 6420     		movs	r0, #100
 291 0060 FFF7FEFF 		bl	PWM_Motores_WriteCompare2
 292              	.LVL20:
  84:main.c        ****             INMD_Write(1);
 293              		.loc 1 84 0
 294 0064 0120     		movs	r0, #1
 295 0066 FFF7FEFF 		bl	INMD_Write
 296              	.LVL21:
  85:main.c        ****             INMI_Write(1);       
 297              		.loc 1 85 0
 298 006a 0120     		movs	r0, #1
 299 006c FFF7FEFF 		bl	INMI_Write
 300              	.LVL22:
  86:main.c        ****             
  87:main.c        ****             break;
 301              		.loc 1 87 0
 302 0070 08BD     		pop	{r3, pc}
 303              	.L17:
  88:main.c        ****         }
  89:main.c        ****         case '1':{
  90:main.c        ****             //Atras Inicio
  91:main.c        ****             PWM_Motores_WriteCompare1(100);
 304              		.loc 1 91 0
 305 0072 6420     		movs	r0, #100
 306 0074 FFF7FEFF 		bl	PWM_Motores_WriteCompare1
 307              	.LVL23:
  92:main.c        ****             PWM_Motores_WriteCompare2(100); 
ARM GAS  C:\Users\nikod\AppData\Local\Temp\ccQQ6jLz.s 			page 8


 308              		.loc 1 92 0
 309 0078 6420     		movs	r0, #100
 310 007a FFF7FEFF 		bl	PWM_Motores_WriteCompare2
 311              	.LVL24:
  93:main.c        ****             INMD_Write(2);
 312              		.loc 1 93 0
 313 007e 0220     		movs	r0, #2
 314 0080 FFF7FEFF 		bl	INMD_Write
 315              	.LVL25:
  94:main.c        ****             INMI_Write(2);
 316              		.loc 1 94 0
 317 0084 0220     		movs	r0, #2
 318 0086 FFF7FEFF 		bl	INMI_Write
 319              	.LVL26:
  95:main.c        ****             
  96:main.c        ****             break;
 320              		.loc 1 96 0
 321 008a 08BD     		pop	{r3, pc}
 322              	.L18:
  97:main.c        ****         }
  98:main.c        ****         case '2':
  99:main.c        ****         {
 100:main.c        ****             //Izquierda 10 째
 101:main.c        ****             TurnLefth();
 323              		.loc 1 101 0
 324 008c FFF7FEFF 		bl	TurnLefth
 325              	.LVL27:
 102:main.c        ****             
 103:main.c        ****             break;
 326              		.loc 1 103 0
 327 0090 08BD     		pop	{r3, pc}
 328              	.L19:
 104:main.c        ****         }
 105:main.c        ****         case '3':{
 106:main.c        ****             //Deracha  10 째
 107:main.c        ****             TurnRight();
 329              		.loc 1 107 0
 330 0092 FFF7FEFF 		bl	TurnRight
 331              	.LVL28:
 108:main.c        ****             
 109:main.c        ****             break;
 332              		.loc 1 109 0
 333 0096 08BD     		pop	{r3, pc}
 334              	.L20:
 110:main.c        ****         }
 111:main.c        ****          case '4':{
 112:main.c        ****             //Adelante Fin
 113:main.c        ****             PWM_Dir_WriteCompare1(2240);
 335              		.loc 1 113 0
 336 0098 4FF40C60 		mov	r0, #2240
 337 009c FFF7FEFF 		bl	PWM_Dir_WriteCompare1
 338              	.LVL29:
 114:main.c        ****             PWM_Dir_WriteCompare2(4080);            
 339              		.loc 1 114 0
 340 00a0 4FF47F60 		mov	r0, #4080
 341 00a4 FFF7FEFF 		bl	PWM_Dir_WriteCompare2
 342              	.LVL30:
ARM GAS  C:\Users\nikod\AppData\Local\Temp\ccQQ6jLz.s 			page 9


 115:main.c        ****             PWM_Motores_WriteCompare1(0);
 343              		.loc 1 115 0
 344 00a8 0020     		movs	r0, #0
 345 00aa FFF7FEFF 		bl	PWM_Motores_WriteCompare1
 346              	.LVL31:
 116:main.c        ****             PWM_Motores_WriteCompare2(0);
 347              		.loc 1 116 0
 348 00ae 0020     		movs	r0, #0
 349 00b0 FFF7FEFF 		bl	PWM_Motores_WriteCompare2
 350              	.LVL32:
 117:main.c        ****             INMD_Write(0);
 351              		.loc 1 117 0
 352 00b4 0020     		movs	r0, #0
 353 00b6 FFF7FEFF 		bl	INMD_Write
 354              	.LVL33:
 118:main.c        ****             INMI_Write(0);
 355              		.loc 1 118 0
 356 00ba 0020     		movs	r0, #0
 357 00bc FFF7FEFF 		bl	INMI_Write
 358              	.LVL34:
 119:main.c        ****             break;
 359              		.loc 1 119 0
 360 00c0 08BD     		pop	{r3, pc}
 361              	.L21:
 120:main.c        ****         }
 121:main.c        ****         case '5':{
 122:main.c        ****             // Atras Fin
 123:main.c        ****             PWM_Dir_WriteCompare1(2240);
 362              		.loc 1 123 0
 363 00c2 4FF40C60 		mov	r0, #2240
 364 00c6 FFF7FEFF 		bl	PWM_Dir_WriteCompare1
 365              	.LVL35:
 124:main.c        ****             PWM_Dir_WriteCompare2(4080); 
 366              		.loc 1 124 0
 367 00ca 4FF47F60 		mov	r0, #4080
 368 00ce FFF7FEFF 		bl	PWM_Dir_WriteCompare2
 369              	.LVL36:
 125:main.c        ****             PWM_Motores_WriteCompare1(0);
 370              		.loc 1 125 0
 371 00d2 0020     		movs	r0, #0
 372 00d4 FFF7FEFF 		bl	PWM_Motores_WriteCompare1
 373              	.LVL37:
 126:main.c        ****             PWM_Motores_WriteCompare2(0);
 374              		.loc 1 126 0
 375 00d8 0020     		movs	r0, #0
 376 00da FFF7FEFF 		bl	PWM_Motores_WriteCompare2
 377              	.LVL38:
 127:main.c        ****             INMD_Write(0);
 378              		.loc 1 127 0
 379 00de 0020     		movs	r0, #0
 380 00e0 FFF7FEFF 		bl	INMD_Write
 381              	.LVL39:
 128:main.c        ****             INMI_Write(0);            
 382              		.loc 1 128 0
 383 00e4 0020     		movs	r0, #0
 384 00e6 FFF7FEFF 		bl	INMI_Write
 385              	.LVL40:
ARM GAS  C:\Users\nikod\AppData\Local\Temp\ccQQ6jLz.s 			page 10


 129:main.c        ****             break;
 386              		.loc 1 129 0
 387 00ea 08BD     		pop	{r3, pc}
 388              	.L22:
 130:main.c        ****         }
 131:main.c        ****         case 'X':
 132:main.c        ****         {   // Giro 90 째 Izquierda
 133:main.c        **** //            for(char i=0;i<9;i++){
 134:main.c        **** //                TurnLefth();
 135:main.c        **** //            }
 136:main.c        ****             
 137:main.c        ****             break;
 138:main.c        ****         }
 139:main.c        ****         case 'Z':
 140:main.c        ****         {   // Giro 90 째 Derecha
 141:main.c        **** //            for(char i=0;i<9;i++){
 142:main.c        **** //                TurnRight();
 143:main.c        **** //            }
 144:main.c        ****             break;
 145:main.c        ****         }
 146:main.c        ****         case 'F':
 147:main.c        ****         {   // Enceder o Agapar luces
 148:main.c        ****             LED_Write(~LED_Read());  
 389              		.loc 1 148 0
 390 00ec FFF7FEFF 		bl	LED_Read
 391              	.LVL41:
 392 00f0 C043     		mvns	r0, r0
 393 00f2 C0B2     		uxtb	r0, r0
 394 00f4 FFF7FEFF 		bl	LED_Write
 395              	.LVL42:
 149:main.c        ****             break;
 396              		.loc 1 149 0
 397 00f8 08BD     		pop	{r3, pc}
 398              	.L23:
 150:main.c        ****         }
 151:main.c        ****         case 'S':
 152:main.c        ****         {   //Activar motores de Recojer Bola se deben desactivar solos
 153:main.c        ****             INMA_Write(1);
 399              		.loc 1 153 0
 400 00fa 0120     		movs	r0, #1
 401 00fc FFF7FEFF 		bl	INMA_Write
 402              	.LVL43:
 154:main.c        ****             PWM_Door_WriteCompare2(17000);
 403              		.loc 1 154 0
 404 0100 44F26820 		movw	r0, #17000
 405 0104 FFF7FEFF 		bl	PWM_Door_WriteCompare2
 406              	.LVL44:
 155:main.c        ****             CyDelay(1500);
 407              		.loc 1 155 0
 408 0108 40F2DC50 		movw	r0, #1500
 409 010c FFF7FEFF 		bl	CyDelay
 410              	.LVL45:
 156:main.c        ****             PWM_Door_WriteCompare2(0);
 411              		.loc 1 156 0
 412 0110 0020     		movs	r0, #0
 413 0112 FFF7FEFF 		bl	PWM_Door_WriteCompare2
 414              	.LVL46:
ARM GAS  C:\Users\nikod\AppData\Local\Temp\ccQQ6jLz.s 			page 11


 157:main.c        ****             break;
 415              		.loc 1 157 0
 416 0116 08BD     		pop	{r3, pc}
 417              	.L24:
 158:main.c        ****         }
 159:main.c        ****         case 'W':
 160:main.c        ****         {   //Ingreso de bola
 161:main.c        ****             if(banderaDoor){                
 418              		.loc 1 161 0
 419 0118 0A4B     		ldr	r3, .L29+4
 420 011a 5B78     		ldrb	r3, [r3, #1]	@ zero_extendqisi2
 421 011c 13F0FF0F 		tst	r3, #255
 422 0120 04D0     		beq	.L26
 162:main.c        ****                 PWM_Door_WriteCompare1(5500); //Pasa a 180 grados
 423              		.loc 1 162 0
 424 0122 41F27C50 		movw	r0, #5500
 425 0126 FFF7FEFF 		bl	PWM_Door_WriteCompare1
 426              	.LVL47:
 427 012a 03E0     		b	.L27
 428              	.L26:
 163:main.c        ****             }else{
 164:main.c        ****                 PWM_Door_WriteCompare1(2000); // pasa a 0 grados
 429              		.loc 1 164 0
 430 012c 4FF4FA60 		mov	r0, #2000
 431 0130 FFF7FEFF 		bl	PWM_Door_WriteCompare1
 432              	.LVL48:
 433              	.L27:
 165:main.c        ****             }
 166:main.c        ****             banderaDoor = ~banderaDoor;
 434              		.loc 1 166 0
 435 0134 034B     		ldr	r3, .L29+4
 436 0136 5A78     		ldrb	r2, [r3, #1]	@ zero_extendqisi2
 437 0138 0122     		movs	r2, #1
 438 013a 5A70     		strb	r2, [r3, #1]
 439              	.L13:
 440 013c 08BD     		pop	{r3, pc}
 441              	.L30:
 442 013e 00BF     		.align	2
 443              	.L29:
 444 0140 00000000 		.word	dato
 445 0144 00000000 		.word	.LANCHOR1
 446              		.cfi_endproc
 447              	.LFE66:
 448              		.size	InterrupRx, .-InterrupRx
 449              		.section	.text.main,"ax",%progbits
 450              		.align	2
 451              		.global	main
 452              		.thumb
 453              		.thumb_func
 454              		.type	main, %function
 455              	main:
 456              	.LFB67:
 167:main.c        ****             break;
 168:main.c        ****         }
 169:main.c        ****         case 'D':{
 170:main.c        ****             //Lanzar Bola
 171:main.c        ****             
ARM GAS  C:\Users\nikod\AppData\Local\Temp\ccQQ6jLz.s 			page 12


 172:main.c        ****             break;
 173:main.c        ****         }
 174:main.c        ****         case 'A':{
 175:main.c        ****             //Sprint 
 176:main.c        ****             
 177:main.c        ****             break;
 178:main.c        ****         }
 179:main.c        ****         default:
 180:main.c        ****         {
 181:main.c        ****             break;
 182:main.c        ****         }
 183:main.c        ****     }
 184:main.c        ****     //UART_PutChar(dato);
 185:main.c        **** }
 186:main.c        **** 
 187:main.c        **** 
 188:main.c        **** int main(void)
 189:main.c        **** {
 457              		.loc 1 189 0
 458              		.cfi_startproc
 459              		@ Volatile: function does not return.
 460              		@ args = 0, pretend = 0, frame = 0
 461              		@ frame_needed = 0, uses_anonymous_args = 0
 462 0000 08B5     		push	{r3, lr}
 463              		.cfi_def_cfa_offset 8
 464              		.cfi_offset 3, -8
 465              		.cfi_offset 14, -4
 190:main.c        ****     /*Instancia lo modulos */
 191:main.c        ****     CyGlobalIntEnable; /* Enable global interrupts. */
 466              		.loc 1 191 0
 467              		.syntax unified
 468              	@ 191 "main.c" 1
 469 0002 62B6     		CPSIE   i
 470              	@ 0 "" 2
 192:main.c        ****     /*Inicia los Modulos */
 193:main.c        ****     UART_Start(); 
 471              		.loc 1 193 0
 472              		.thumb
 473              		.syntax unified
 474 0004 FFF7FEFF 		bl	UART_Start
 475              	.LVL49:
 194:main.c        ****     IRQRX_StartEx(InterrupRx);
 476              		.loc 1 194 0
 477 0008 4348     		ldr	r0, .L35
 478 000a FFF7FEFF 		bl	IRQRX_StartEx
 479              	.LVL50:
 195:main.c        ****     PWM_Motores_Start();
 480              		.loc 1 195 0
 481 000e FFF7FEFF 		bl	PWM_Motores_Start
 482              	.LVL51:
 196:main.c        ****     ADC_Start();
 483              		.loc 1 196 0
 484 0012 FFF7FEFF 		bl	ADC_Start
 485              	.LVL52:
 197:main.c        ****     INMD_Write(0);
 486              		.loc 1 197 0
 487 0016 0020     		movs	r0, #0
ARM GAS  C:\Users\nikod\AppData\Local\Temp\ccQQ6jLz.s 			page 13


 488 0018 FFF7FEFF 		bl	INMD_Write
 489              	.LVL53:
 198:main.c        ****     INMI_Write(0);
 490              		.loc 1 198 0
 491 001c 0020     		movs	r0, #0
 492 001e FFF7FEFF 		bl	INMI_Write
 493              	.LVL54:
 199:main.c        ****     PWM_Motores_WriteCompare1(0);
 494              		.loc 1 199 0
 495 0022 0020     		movs	r0, #0
 496 0024 FFF7FEFF 		bl	PWM_Motores_WriteCompare1
 497              	.LVL55:
 200:main.c        ****     PWM_Motores_WriteCompare2(0);
 498              		.loc 1 200 0
 499 0028 0020     		movs	r0, #0
 500 002a FFF7FEFF 		bl	PWM_Motores_WriteCompare2
 501              	.LVL56:
 201:main.c        ****     PWM_Dir_Start();
 502              		.loc 1 201 0
 503 002e FFF7FEFF 		bl	PWM_Dir_Start
 504              	.LVL57:
 202:main.c        ****     PWM_Dir_WriteCompare1(direcciond);//en cero
 505              		.loc 1 202 0
 506 0032 3A4C     		ldr	r4, .L35+4
 507 0034 6068     		ldr	r0, [r4, #4]
 508 0036 80B2     		uxth	r0, r0
 509 0038 FFF7FEFF 		bl	PWM_Dir_WriteCompare1
 510              	.LVL58:
 203:main.c        ****     PWM_Dir_WriteCompare2(direccioni);//en cero
 511              		.loc 1 203 0
 512 003c 2068     		ldr	r0, [r4]
 513 003e 80B2     		uxth	r0, r0
 514 0040 FFF7FEFF 		bl	PWM_Dir_WriteCompare2
 515              	.LVL59:
 204:main.c        ****     //Puerta
 205:main.c        ****     PWM_Door_Start();
 516              		.loc 1 205 0
 517 0044 FFF7FEFF 		bl	PWM_Door_Start
 518              	.LVL60:
 206:main.c        ****     //0 grados = 5500
 207:main.c        ****     //90 grados = 3200
 208:main.c        ****     //180 grados = 2000
 209:main.c        ****     PWM_Door_WriteCompare1(5500); //
 519              		.loc 1 209 0
 520 0048 41F27C50 		movw	r0, #5500
 521 004c FFF7FEFF 		bl	PWM_Door_WriteCompare1
 522              	.LVL61:
 210:main.c        ****     
 211:main.c        ****     // Ascensor
 212:main.c        ****     PWM_Door_WriteCompare2(0);
 523              		.loc 1 212 0
 524 0050 0020     		movs	r0, #0
 525 0052 FFF7FEFF 		bl	PWM_Door_WriteCompare2
 526              	.LVL62:
 213:main.c        ****     INMA_Write(0);
 527              		.loc 1 213 0
 528 0056 0020     		movs	r0, #0
ARM GAS  C:\Users\nikod\AppData\Local\Temp\ccQQ6jLz.s 			page 14


 529 0058 FFF7FEFF 		bl	INMA_Write
 530              	.LVL63:
 214:main.c        ****     
 215:main.c        ****     /* Codigo para controlar desde App*/
 216:main.c        ****     UART_PutString("*.kwl\r\n");
 531              		.loc 1 216 0
 532 005c 3048     		ldr	r0, .L35+8
 533 005e FFF7FEFF 		bl	UART_PutString
 534              	.LVL64:
 217:main.c        ****     UART_PutString("clear_panel()\r\n");
 535              		.loc 1 217 0
 536 0062 3048     		ldr	r0, .L35+12
 537 0064 FFF7FEFF 		bl	UART_PutString
 538              	.LVL65:
 218:main.c        ****     UART_PutString("set_grid_size(15,9)\r\n");
 539              		.loc 1 218 0
 540 0068 2F48     		ldr	r0, .L35+16
 541 006a FFF7FEFF 		bl	UART_PutString
 542              	.LVL66:
 219:main.c        ****     UART_PutString("add_text(3,1,medium,L,\"Amarillo Luces --\\nAzul Toma Bola --\\nRojo Sube Bola 
 543              		.loc 1 219 0
 544 006e 2F48     		ldr	r0, .L35+20
 545 0070 FFF7FEFF 		bl	UART_PutString
 546              	.LVL67:
 220:main.c        ****     UART_PutString("add_button(7,6,2,0,4)\r\n");
 547              		.loc 1 220 0
 548 0074 2E48     		ldr	r0, .L35+24
 549 0076 FFF7FEFF 		bl	UART_PutString
 550              	.LVL68:
 221:main.c        ****     UART_PutString("add_button(7,8,3,1,5)\r\n");
 551              		.loc 1 221 0
 552 007a 2E48     		ldr	r0, .L35+28
 553 007c FFF7FEFF 		bl	UART_PutString
 554              	.LVL69:
 222:main.c        ****     UART_PutString("add_button(9,8,5,2,)\r\n");
 555              		.loc 1 222 0
 556 0080 2D48     		ldr	r0, .L35+32
 557 0082 FFF7FEFF 		bl	UART_PutString
 558              	.LVL70:
 223:main.c        ****     UART_PutString("add_button(5,8,4,3,)\r\n");
 559              		.loc 1 223 0
 560 0086 2D48     		ldr	r0, .L35+36
 561 0088 FFF7FEFF 		bl	UART_PutString
 562              	.LVL71:
 224:main.c        ****     UART_PutString("add_button(9,6,11,X,)\r\n");
 563              		.loc 1 224 0
 564 008c 2C48     		ldr	r0, .L35+40
 565 008e FFF7FEFF 		bl	UART_PutString
 566              	.LVL72:
 225:main.c        ****     UART_PutString("add_button(5,6,10,Z,)\r\n");
 567              		.loc 1 225 0
 568 0092 2C48     		ldr	r0, .L35+44
 569 0094 FFF7FEFF 		bl	UART_PutString
 570              	.LVL73:
 226:main.c        ****     UART_PutString("add_button(13,7,28,F,)\r\n");
 571              		.loc 1 226 0
 572 0098 2B48     		ldr	r0, .L35+48
ARM GAS  C:\Users\nikod\AppData\Local\Temp\ccQQ6jLz.s 			page 15


 573 009a FFF7FEFF 		bl	UART_PutString
 574              	.LVL74:
 227:main.c        ****     UART_PutString("add_button(13,1,30,S,)\r\n");
 575              		.loc 1 227 0
 576 009e 2B48     		ldr	r0, .L35+52
 577 00a0 FFF7FEFF 		bl	UART_PutString
 578              	.LVL75:
 228:main.c        ****     UART_PutString("add_button(1,2,24,W,)\r\n");
 579              		.loc 1 228 0
 580 00a4 2A48     		ldr	r0, .L35+56
 581 00a6 FFF7FEFF 		bl	UART_PutString
 582              	.LVL76:
 229:main.c        ****     UART_PutString("add_button(1,1,1,S,)\r\n");
 583              		.loc 1 229 0
 584 00aa 2A48     		ldr	r0, .L35+60
 585 00ac FFF7FEFF 		bl	UART_PutString
 586              	.LVL77:
 230:main.c        ****     UART_PutString("add_button(0,7,29,D,)\r\n");
 587              		.loc 1 230 0
 588 00b0 2948     		ldr	r0, .L35+64
 589 00b2 FFF7FEFF 		bl	UART_PutString
 590              	.LVL78:
 231:main.c        ****     UART_PutString("add_monitor(5,2,5,T,1)\r\n");
 591              		.loc 1 231 0
 592 00b6 2948     		ldr	r0, .L35+68
 593 00b8 FFF7FEFF 		bl	UART_PutString
 594              	.LVL79:
 232:main.c        ****     UART_PutString("set_panel_notes(,,,)\r\n");
 595              		.loc 1 232 0
 596 00bc 2848     		ldr	r0, .L35+72
 597 00be FFF7FEFF 		bl	UART_PutString
 598              	.LVL80:
 233:main.c        ****     UART_PutString("run()\r\n");
 599              		.loc 1 233 0
 600 00c2 2848     		ldr	r0, .L35+76
 601 00c4 FFF7FEFF 		bl	UART_PutString
 602              	.LVL81:
 603              	.L32:
 234:main.c        ****     //DS_init(0x40);//Inicia sensor de distancia
 235:main.c        ****     
 236:main.c        ****     for(;;)
 237:main.c        ****     {
 238:main.c        ****         if(banderag){
 604              		.loc 1 238 0
 605 00c8 274B     		ldr	r3, .L35+80
 606 00ca 1B78     		ldrb	r3, [r3]	@ zero_extendqisi2
 607 00cc 13F0FF0F 		tst	r3, #255
 608 00d0 FAD0     		beq	.L32
 239:main.c        ****             ADC_StartConvert();
 609              		.loc 1 239 0
 610 00d2 FFF7FEFF 		bl	ADC_StartConvert
 611              	.LVL82:
 240:main.c        ****             ADC_IsEndConversion(ADC_WAIT_FOR_RESULT);
 612              		.loc 1 240 0
 613 00d6 0020     		movs	r0, #0
 614 00d8 FFF7FEFF 		bl	ADC_IsEndConversion
 615              	.LVL83:
ARM GAS  C:\Users\nikod\AppData\Local\Temp\ccQQ6jLz.s 			page 16


 241:main.c        ****             temp=ADC_GetResult16(); // actualiza Roll Graph
 616              		.loc 1 241 0
 617 00dc FFF7FEFF 		bl	ADC_GetResult16
 618              	.LVL84:
 619 00e0 224B     		ldr	r3, .L35+84
 620 00e2 1880     		strh	r0, [r3]	@ movhi
 242:main.c        ****             valor=((50*temp)/255);
 621              		.loc 1 242 0
 622 00e4 3223     		movs	r3, #50
 623 00e6 03FB00F0 		mul	r0, r3, r0
 624 00ea 214A     		ldr	r2, .L35+88
 625 00ec 82FB0032 		smull	r3, r2, r2, r0
 626 00f0 0244     		add	r2, r2, r0
 627 00f2 C017     		asrs	r0, r0, #31
 628 00f4 C0EBE212 		rsb	r2, r0, r2, asr #7
 629 00f8 D2B2     		uxtb	r2, r2
 630 00fa 1E4B     		ldr	r3, .L35+92
 631 00fc 1A70     		strb	r2, [r3]
 243:main.c        ****             sprintf(buffer2,"%d\n",valor);//lo codifica en ascci
 632              		.loc 1 243 0
 633 00fe 1A4C     		ldr	r4, .L35+80
 634 0100 251D     		adds	r5, r4, #4
 635 0102 1D49     		ldr	r1, .L35+96
 636 0104 2846     		mov	r0, r5
 637 0106 FFF7FEFF 		bl	sprintf
 638              	.LVL85:
 244:main.c        ****             UART_PutString(buffer2);
 639              		.loc 1 244 0
 640 010a 2846     		mov	r0, r5
 641 010c FFF7FEFF 		bl	UART_PutString
 642              	.LVL86:
 245:main.c        ****             banderag=false;
 643              		.loc 1 245 0
 644 0110 0023     		movs	r3, #0
 645 0112 2370     		strb	r3, [r4]
 646 0114 D8E7     		b	.L32
 647              	.L36:
 648 0116 00BF     		.align	2
 649              	.L35:
 650 0118 00000000 		.word	InterrupRx
 651 011c 00000000 		.word	.LANCHOR0
 652 0120 00000000 		.word	.LC0
 653 0124 08000000 		.word	.LC1
 654 0128 18000000 		.word	.LC2
 655 012c 30000000 		.word	.LC3
 656 0130 A4000000 		.word	.LC4
 657 0134 BC000000 		.word	.LC5
 658 0138 D4000000 		.word	.LC6
 659 013c EC000000 		.word	.LC7
 660 0140 04010000 		.word	.LC8
 661 0144 1C010000 		.word	.LC9
 662 0148 34010000 		.word	.LC10
 663 014c 50010000 		.word	.LC11
 664 0150 6C010000 		.word	.LC12
 665 0154 84010000 		.word	.LC13
 666 0158 9C010000 		.word	.LC14
 667 015c B4010000 		.word	.LC15
ARM GAS  C:\Users\nikod\AppData\Local\Temp\ccQQ6jLz.s 			page 17


 668 0160 D0010000 		.word	.LC16
 669 0164 E8010000 		.word	.LC17
 670 0168 00000000 		.word	.LANCHOR1
 671 016c 00000000 		.word	temp
 672 0170 81808080 		.word	-2139062143
 673 0174 00000000 		.word	valor
 674 0178 F0010000 		.word	.LC18
 675              		.cfi_endproc
 676              	.LFE67:
 677              		.size	main, .-main
 678              		.comm	dato,1,1
 679              		.global	banderaDoor
 680              		.global	bandera1
 681              		.global	banderag
 682              		.global	direccioni
 683              		.global	direcciond
 684              		.comm	valor,1,1
 685              		.comm	count,2,2
 686              		.comm	temp,2,2
 687              		.global	buffer2
 688              		.global	DDIRD
 689              		.global	DDIRI
 690              		.global	MINDIRD
 691              		.global	MAXDIRD
 692              		.global	MINDIRI
 693              		.global	MAXDIRI
 694              		.section	.rodata
 695              		.align	2
 696              		.type	DDIRD, %object
 697              		.size	DDIRD, 4
 698              	DDIRD:
 699 0000 24000000 		.word	36
 700              		.type	DDIRI, %object
 701              		.size	DDIRI, 4
 702              	DDIRI:
 703 0004 25000000 		.word	37
 704              		.type	MINDIRD, %object
 705              		.size	MINDIRD, 4
 706              	MINDIRD:
 707 0008 4E070000 		.word	1870
 708              		.type	MAXDIRD, %object
 709              		.size	MAXDIRD, 4
 710              	MAXDIRD:
 711 000c 320A0000 		.word	2610
 712              		.type	MINDIRI, %object
 713              		.size	MINDIRI, 4
 714              	MINDIRI:
 715 0010 7E0E0000 		.word	3710
 716              		.type	MAXDIRI, %object
 717              		.size	MAXDIRI, 4
 718              	MAXDIRI:
 719 0014 62110000 		.word	4450
 720              		.data
 721              		.align	2
 722              		.set	.LANCHOR0,. + 0
 723              		.type	direccioni, %object
 724              		.size	direccioni, 4
ARM GAS  C:\Users\nikod\AppData\Local\Temp\ccQQ6jLz.s 			page 18


 725              	direccioni:
 726 0000 F00F0000 		.word	4080
 727              		.type	direcciond, %object
 728              		.size	direcciond, 4
 729              	direcciond:
 730 0004 C0080000 		.word	2240
 731              		.section	.rodata.str1.4,"aMS",%progbits,1
 732              		.align	2
 733              	.LC0:
 734 0000 2A2E6B77 		.ascii	"*.kwl\015\012\000"
 734      6C0D0A00 
 735              	.LC1:
 736 0008 636C6561 		.ascii	"clear_panel()\015\012\000"
 736      725F7061 
 736      6E656C28 
 736      290D0A00 
 737              	.LC2:
 738 0018 7365745F 		.ascii	"set_grid_size(15,9)\015\012\000"
 738      67726964 
 738      5F73697A 
 738      65283135 
 738      2C39290D 
 739 002e 0000     		.space	2
 740              	.LC3:
 741 0030 6164645F 		.ascii	"add_text(3,1,medium,L,\"Amarillo Luces --\\nAzul To"
 741      74657874 
 741      28332C31 
 741      2C6D6564 
 741      69756D2C 
 742 0061 6D612042 		.ascii	"ma Bola --\\nRojo Sube Bola -- \\nVerde Lanza Bola\""
 742      6F6C6120 
 742      2D2D5C6E 
 742      526F6A6F 
 742      20537562 
 743 0092 2C323435 		.ascii	",245,240,245,)\015\012\000"
 743      2C323430 
 743      2C323435 
 743      2C290D0A 
 743      00
 744 00a3 00       		.space	1
 745              	.LC4:
 746 00a4 6164645F 		.ascii	"add_button(7,6,2,0,4)\015\012\000"
 746      62757474 
 746      6F6E2837 
 746      2C362C32 
 746      2C302C34 
 747              	.LC5:
 748 00bc 6164645F 		.ascii	"add_button(7,8,3,1,5)\015\012\000"
 748      62757474 
 748      6F6E2837 
 748      2C382C33 
 748      2C312C35 
 749              	.LC6:
 750 00d4 6164645F 		.ascii	"add_button(9,8,5,2,)\015\012\000"
 750      62757474 
 750      6F6E2839 
 750      2C382C35 
ARM GAS  C:\Users\nikod\AppData\Local\Temp\ccQQ6jLz.s 			page 19


 750      2C322C29 
 751 00eb 00       		.space	1
 752              	.LC7:
 753 00ec 6164645F 		.ascii	"add_button(5,8,4,3,)\015\012\000"
 753      62757474 
 753      6F6E2835 
 753      2C382C34 
 753      2C332C29 
 754 0103 00       		.space	1
 755              	.LC8:
 756 0104 6164645F 		.ascii	"add_button(9,6,11,X,)\015\012\000"
 756      62757474 
 756      6F6E2839 
 756      2C362C31 
 756      312C582C 
 757              	.LC9:
 758 011c 6164645F 		.ascii	"add_button(5,6,10,Z,)\015\012\000"
 758      62757474 
 758      6F6E2835 
 758      2C362C31 
 758      302C5A2C 
 759              	.LC10:
 760 0134 6164645F 		.ascii	"add_button(13,7,28,F,)\015\012\000"
 760      62757474 
 760      6F6E2831 
 760      332C372C 
 760      32382C46 
 761 014d 000000   		.space	3
 762              	.LC11:
 763 0150 6164645F 		.ascii	"add_button(13,1,30,S,)\015\012\000"
 763      62757474 
 763      6F6E2831 
 763      332C312C 
 763      33302C53 
 764 0169 000000   		.space	3
 765              	.LC12:
 766 016c 6164645F 		.ascii	"add_button(1,2,24,W,)\015\012\000"
 766      62757474 
 766      6F6E2831 
 766      2C322C32 
 766      342C572C 
 767              	.LC13:
 768 0184 6164645F 		.ascii	"add_button(1,1,1,S,)\015\012\000"
 768      62757474 
 768      6F6E2831 
 768      2C312C31 
 768      2C532C29 
 769 019b 00       		.space	1
 770              	.LC14:
 771 019c 6164645F 		.ascii	"add_button(0,7,29,D,)\015\012\000"
 771      62757474 
 771      6F6E2830 
 771      2C372C32 
 771      392C442C 
 772              	.LC15:
 773 01b4 6164645F 		.ascii	"add_monitor(5,2,5,T,1)\015\012\000"
 773      6D6F6E69 
ARM GAS  C:\Users\nikod\AppData\Local\Temp\ccQQ6jLz.s 			page 20


 773      746F7228 
 773      352C322C 
 773      352C542C 
 774 01cd 000000   		.space	3
 775              	.LC16:
 776 01d0 7365745F 		.ascii	"set_panel_notes(,,,)\015\012\000"
 776      70616E65 
 776      6C5F6E6F 
 776      74657328 
 776      2C2C2C29 
 777 01e7 00       		.space	1
 778              	.LC17:
 779 01e8 72756E28 		.ascii	"run()\015\012\000"
 779      290D0A00 
 780              	.LC18:
 781 01f0 25640A00 		.ascii	"%d\012\000"
 782              		.bss
 783              		.align	2
 784              		.set	.LANCHOR1,. + 0
 785              		.type	banderag, %object
 786              		.size	banderag, 1
 787              	banderag:
 788 0000 00       		.space	1
 789              		.type	banderaDoor, %object
 790              		.size	banderaDoor, 1
 791              	banderaDoor:
 792 0001 00       		.space	1
 793 0002 0000     		.space	2
 794              		.type	buffer2, %object
 795              		.size	buffer2, 12
 796              	buffer2:
 797 0004 00000000 		.space	12
 797      00000000 
 797      00000000 
 798              		.type	bandera1, %object
 799              		.size	bandera1, 1
 800              	bandera1:
 801 0010 00       		.space	1
 802              		.text
 803              	.Letext0:
 804              		.file 2 "c:\\program files (x86)\\cypress\\psoc creator\\4.2\\psoc creator\\import\\gnu\\arm\\5.4.
 805              		.file 3 "c:\\program files (x86)\\cypress\\psoc creator\\4.2\\psoc creator\\import\\gnu\\arm\\5.4.
 806              		.file 4 "Generated_Source\\PSoC5/cytypes.h"
 807              		.file 5 "Generated_Source\\PSoC5/core_cm3.h"
 808              		.file 6 "Generated_Source\\PSoC5/PWM_Dir.h"
 809              		.file 7 "Generated_Source\\PSoC5/PWM_Motores.h"
 810              		.file 8 "Generated_Source\\PSoC5/INMD.h"
 811              		.file 9 "Generated_Source\\PSoC5/INMI.h"
 812              		.file 10 "Generated_Source\\PSoC5/CyLib.h"
 813              		.file 11 "Generated_Source\\PSoC5/UART.h"
 814              		.file 12 "Generated_Source\\PSoC5/LED.h"
 815              		.file 13 "Generated_Source\\PSoC5/INMA.h"
 816              		.file 14 "Generated_Source\\PSoC5/PWM_Door.h"
 817              		.file 15 "Generated_Source\\PSoC5/IRQRX.h"
 818              		.file 16 "Generated_Source\\PSoC5/ADC.h"
 819              		.file 17 "c:\\program files (x86)\\cypress\\psoc creator\\4.2\\psoc creator\\import\\gnu\\arm\\5.4